; Function Attrs: null_pointer_is_valid sspstrong uwtable
define hidden i32 @samr_dissect_struct_ValidatePasswordInfo(ptr noundef %0, i32 noundef %1, ptr noundef %2, ptr noundef %3, ptr noundef %4, ptr noundef %5, i32 noundef %6, i32 %7) local_unnamed_addr #0 {
  %9 = getelementptr inbounds nuw i8, ptr %4, i64 25
  %10 = load i8, ptr %9, align 1, !range !6, !noundef !7
  %11 = trunc nuw i8 %10 to i1
  %12 = and i32 %1, 7
  %.not = icmp eq i32 %12, 0
  %or.cond = or i1 %.not, %11
  %13 = and i32 %1, -8
  %14 = add i32 %13, 8
  %.0 = select i1 %or.cond, i32 %1, i32 %14
  %.not62 = icmp eq ptr %3, null
  br i1 %.not62, label %19, label %15

15:                                               ; preds = %8
  %16 = tail call ptr @proto_tree_add_item(ptr noundef nonnull %3, i32 noundef %6, ptr noundef %0, i32 noundef %.0, i32 noundef -1, i32 noundef 0)
  %17 = load i32, ptr @ett_samr_samr_ValidatePasswordInfo, align 4
  %18 = tail call ptr @proto_item_add_subtree(ptr noundef %16, i32 noundef %17)
  br label %19

19:                                               ; preds = %15, %8
  %.060 = phi ptr [ %16, %15 ], [ null, %8 ]
  %.059 = phi ptr [ %18, %15 ], [ null, %8 ]
  %20 = load i32, ptr @hf_samr_samr_ValidatePasswordInfo_fields_present, align 4
  %21 = tail call i32 @samr_dissect_bitmap_ValidateFieldsPresent(ptr noundef %0, i32 noundef %.0, ptr noundef %2, ptr noundef %.059, ptr noundef %4, ptr noundef %5, i32 noundef %20, i32 poison)
  %22 = load i32, ptr @hf_samr_samr_ValidatePasswordInfo_last_password_change, align 4
  %23 = tail call i32 @dissect_ndr_nt_NTTIME_hyper(ptr noundef %0, i32 noundef %21, ptr noundef %2, ptr noundef %.059, ptr noundef %4, ptr noundef %5, i32 noundef %22)
  %24 = load i32, ptr @hf_samr_samr_ValidatePasswordInfo_bad_password_time, align 4
  %25 = tail call i32 @dissect_ndr_nt_NTTIME_hyper(ptr noundef %0, i32 noundef %23, ptr noundef %2, ptr noundef %.059, ptr noundef %4, ptr noundef %5, i32 noundef %24)
  %26 = load i32, ptr @hf_samr_samr_ValidatePasswordInfo_lockout_time, align 4
  %27 = tail call i32 @dissect_ndr_nt_NTTIME_hyper(ptr noundef %0, i32 noundef %25, ptr noundef %2, ptr noundef %.059, ptr noundef %4, ptr noundef %5, i32 noundef %26)
  %28 = load i32, ptr @hf_samr_samr_ValidatePasswordInfo_bad_pwd_count, align 4
  %29 = tail call i32 @PIDL_dissect_uint32(ptr noundef %0, i32 noundef %27, ptr noundef %2, ptr noundef %.059, ptr noundef %4, ptr noundef %5, i32 noundef %28, i32 noundef 0)
  %30 = load i32, ptr @hf_samr_samr_ValidatePasswordInfo_pwd_history_len, align 4
  %31 = tail call i32 @PIDL_dissect_uint32(ptr noundef %0, i32 noundef %29, ptr noundef %2, ptr noundef %.059, ptr noundef %4, ptr noundef %5, i32 noundef %30, i32 noundef 0)
  %32 = load i32, ptr @hf_samr_samr_ValidatePasswordInfo_pwd_history, align 4
  %33 = tail call i32 @dissect_ndr_embedded_pointer(ptr noundef %0, i32 noundef %31, ptr noundef %2, ptr noundef %.059, ptr noundef %4, ptr noundef %5, ptr noundef nonnull @samr_dissect_element_ValidatePasswordInfo_pwd_history_, i32 noundef 2, ptr noundef nonnull @.str.987, i32 noundef %32)
  %34 = sub i32 %33, %.0
  tail call void @proto_item_set_len(ptr noundef %.060, i32 noundef %34)
  %35 = getelementptr inbounds nuw i8, ptr %4, i64 64
  %36 = load ptr, ptr %35, align 8
  %37 = getelementptr inbounds nuw i8, ptr %36, i64 96
  %38 = load i32, ptr %37, align 8
  %39 = and i32 %38, 1
  %.not63 = icmp eq i32 %39, 0
  br i1 %.not63, label %47, label %40

40:                                               ; preds = %19
  %41 = load i8, ptr %9, align 1, !range !6, !noundef !7
  %42 = trunc nuw i8 %41 to i1
  %43 = and i32 %33, 7
  %.not64 = icmp eq i32 %43, 0
  %or.cond65 = or i1 %.not64, %42
  br i1 %or.cond65, label %47, label %44

44:                                               ; preds = %40
  %45 = and i32 %33, -8
  %46 = add i32 %45, 8
  br label %47

47:                                               ; preds = %40, %44, %19
  %.1 = phi i32 [ %33, %40 ], [ %46, %44 ], [ %33, %19 ]
  ret i32 %.1
}